; Function Attrs: mustprogress uwtable
define hidden noundef i32 @_ZNK3sls10euf_plugin10value_hashclEP3app(ptr noundef nonnull readonly align 8 captures(none) dereferenceable(8) %0, ptr noundef readonly captures(address) %1) local_unnamed_addr #3 align 2 personality ptr @__gxx_personality_v0 {
  %3 = alloca %class.obj_ref, align 8
  %4 = getelementptr inbounds nuw i8, ptr %1, i64 24
  %5 = load i32, ptr %4, align 8, !tbaa !142
  %6 = zext i32 %5 to i64
  %.idx = shl nuw nsw i64 %6, 3
  %7 = getelementptr inbounds nuw i8, ptr %1, i64 %.idx
  %.ptr16 = getelementptr inbounds nuw i8, ptr %7, i64 32
  %.not13 = icmp eq i32 %5, 0
  br i1 %.not13, label %._crit_edge, label %.lr.ph

.lr.ph:                                           ; preds = %2
  %.ptr = getelementptr inbounds nuw i8, ptr %1, i64 32
  %8 = getelementptr inbounds nuw i8, ptr %3, i64 8
  br label %9

._crit_edge:                                      ; preds = %_ZN7obj_refI4expr11ast_managerED2Ev.exit, %2
  %.0.lcssa = phi i32 [ 0, %2 ], [ %18, %_ZN7obj_refI4expr11ast_managerED2Ev.exit ]
  ret i32 %.0.lcssa

9:                                                ; preds = %.lr.ph, %_ZN7obj_refI4expr11ast_managerED2Ev.exit
  %.015 = phi i32 [ 0, %.lr.ph ], [ %18, %_ZN7obj_refI4expr11ast_managerED2Ev.exit ]
  %.01114 = phi ptr [ %.ptr, %.lr.ph ], [ %28, %_ZN7obj_refI4expr11ast_managerED2Ev.exit ]
  %10 = load ptr, ptr %.01114, align 8, !tbaa !140
  %11 = mul i32 %.015, 3
  call void @llvm.lifetime.start.p0(i64 16, ptr nonnull %3) #23
  %12 = load ptr, ptr %0, align 8, !tbaa !288
  %13 = getelementptr inbounds nuw i8, ptr %12, i64 8
  %14 = load ptr, ptr %13, align 8, !tbaa !68
  call void @_ZN3sls7context9get_valueEP4expr(ptr dead_on_unwind nonnull writable sret(%class.obj_ref) align 8 %3, ptr noundef nonnull align 8 dereferenceable(321) %14, ptr noundef %10)
  %15 = load ptr, ptr %3, align 8, !tbaa !289
  %16 = getelementptr inbounds nuw i8, ptr %15, i64 12
  %17 = load i32, ptr %16, align 4, !tbaa !270
  %18 = add i32 %17, %11
  %19 = load ptr, ptr %8, align 8, !tbaa !291
  %20 = getelementptr inbounds nuw i8, ptr %15, i64 8
  %21 = load i32, ptr %20, align 4, !tbaa !275
  %22 = add i32 %21, -1
  store i32 %22, ptr %20, align 4, !tbaa !275
  %23 = icmp eq i32 %22, 0
  br i1 %23, label %24, label %_ZN7obj_refI4expr11ast_managerED2Ev.exit

24:                                               ; preds = %9
  invoke void @_ZN11ast_manager11delete_nodeEP3ast(ptr noundef nonnull align 8 dereferenceable(976) %19, ptr noundef nonnull %15)
          to label %_ZN7obj_refI4expr11ast_managerED2Ev.exit unwind label %25

25:                                               ; preds = %24
  %26 = landingpad { ptr, i32 }
          catch ptr null
  %27 = extractvalue { ptr, i32 } %26, 0
  call void @__clang_call_terminate(ptr %27) #24
  unreachable

_ZN7obj_refI4expr11ast_managerED2Ev.exit:         ; preds = %9, %24
  call void @llvm.lifetime.end.p0(i64 16, ptr nonnull %3) #23
  %28 = getelementptr inbounds nuw i8, ptr %.01114, i64 8
  %.not = icmp eq ptr %28, %.ptr16
  br i1 %.not, label %._crit_edge, label %9
}